target datalayout = "e-m:e-p270:32:32-p271:32:32-p272:64:64-i64:64-i128:128-f80:128-n8:16:32:64-S128"
target triple = "x86_64-pc-linux-gnu"

; Function Attrs: mustprogress nounwind uwtable
define noundef i32 @_Z14readExifUint16PKhmmb(ptr noundef %0, i64 noundef %1, i64 noundef %2, i1 noundef zeroext %3) #7 {
  %5 = alloca i32, align 4
  %6 = alloca ptr, align 8
  %7 = alloca i64, align 8
  %8 = alloca i64, align 8
  %9 = alloca i8, align 1
  store ptr %0, ptr %6, align 8, !tbaa !3
  store i64 %1, ptr %7, align 8, !tbaa !58
  store i64 %2, ptr %8, align 8, !tbaa !58
  %10 = zext i1 %3 to i8
  store i8 %10, ptr %9, align 1, !tbaa !64
  %11 = load i64, ptr %8, align 8, !tbaa !58
  %12 = add i64 %11, 2
  %13 = load i64, ptr %7, align 8, !tbaa !58
  %14 = icmp ugt i64 %12, %13
  br i1 %14, label %15, label %16

15:                                               ; preds = %4
  store i32 0, ptr %5, align 4
  br label %49

16:                                               ; preds = %4
  %17 = load i8, ptr %9, align 1, !tbaa !64, !range !48, !noundef !49
  %18 = trunc i8 %17 to i1
  br i1 %18, label %19, label %34

19:                                               ; preds = %16
  %20 = load ptr, ptr %6, align 8, !tbaa !3
  %21 = load i64, ptr %8, align 8, !tbaa !58
  %22 = add i64 %21, 0
  %23 = getelementptr inbounds nuw i8, ptr %20, i64 %22
  %24 = load i8, ptr %23, align 1, !tbaa !86
  %25 = zext i8 %24 to i32
  %26 = shl i32 %25, 8
  %27 = load ptr, ptr %6, align 8, !tbaa !3
  %28 = load i64, ptr %8, align 8, !tbaa !58
  %29 = add i64 %28, 1
  %30 = getelementptr inbounds nuw i8, ptr %27, i64 %29
  %31 = load i8, ptr %30, align 1, !tbaa !86
  %32 = zext i8 %31 to i32
  %33 = or i32 %26, %32
  store i32 %33, ptr %5, align 4
  br label %49

34:                                               ; preds = %16
  %35 = load ptr, ptr %6, align 8, !tbaa !3
  %36 = load i64, ptr %8, align 8, !tbaa !58
  %37 = add i64 %36, 1
  %38 = getelementptr inbounds nuw i8, ptr %35, i64 %37
  %39 = load i8, ptr %38, align 1, !tbaa !86
  %40 = zext i8 %39 to i32
  %41 = shl i32 %40, 8
  %42 = load ptr, ptr %6, align 8, !tbaa !3
  %43 = load i64, ptr %8, align 8, !tbaa !58
  %44 = add i64 %43, 0
  %45 = getelementptr inbounds nuw i8, ptr %42, i64 %44
  %46 = load i8, ptr %45, align 1, !tbaa !86
  %47 = zext i8 %46 to i32
  %48 = or i32 %41, %47
  store i32 %48, ptr %5, align 4
  br label %49

49:                                               ; preds = %34, %19, %15
  %50 = load i32, ptr %5, align 4
  ret i32 %50
}