; Function Attrs: mustprogress nofree norecurse nosync nounwind willreturn memory(argmem: read) uwtable
define noundef range(i32 0, 65536) i32 @_Z14readExifUint16PKhmmb(ptr noundef readonly captures(none) %0, i64 noundef %1, i64 noundef %2, i1 noundef zeroext %3) local_unnamed_addr #15 {
  %5 = add i64 %2, 2
  %6 = icmp ugt i64 %5, %1
  br i1 %6, label %20, label %7

7:                                                ; preds = %4
  %8 = getelementptr i8, ptr %0, i64 %2
  br i1 %3, label %9, label %17

9:                                                ; preds = %7
  %10 = load i8, ptr %8, align 1, !tbaa !32
  %11 = zext i8 %10 to i32
  %12 = shl nuw nsw i32 %11, 8
  %13 = getelementptr i8, ptr %8, i64 1
  %14 = load i8, ptr %13, align 1, !tbaa !32
  %15 = zext i8 %14 to i32
  %16 = or disjoint i32 %12, %15
  br label %20

17:                                               ; preds = %7
  %18 = load i16, ptr %8, align 1
  %19 = zext i16 %18 to i32
  br label %20

20:                                               ; preds = %4, %17, %9
  %.0 = phi i32 [ %16, %9 ], [ %19, %17 ], [ 0, %4 ]
  ret i32 %.0
}